target datalayout = "e-m:e-p270:32:32-p271:32:32-p272:64:64-i64:64-i128:128-f80:128-n8:16:32:64-S128"
target triple = "x86_64-pc-linux-gnu"

; Function Attrs: null_pointer_is_valid sspstrong uwtable
define hidden zeroext i1 @lbmc_test_lbmc_header(ptr noundef %0, i32 noundef %1) #0 {
  %3 = alloca i1, align 1
  %4 = alloca ptr, align 8
  %5 = alloca i32, align 4
  %6 = alloca i8, align 1
  %7 = alloca i8, align 1
  %8 = alloca i8, align 1
  %9 = alloca i8, align 1
  %10 = alloca i16, align 2
  %11 = alloca i32, align 4
  store ptr %0, ptr %4, align 8
  store i32 %1, ptr %5, align 4
  call void @llvm.lifetime.start.p0(i64 1, ptr %6) #16
  call void @llvm.lifetime.start.p0(i64 1, ptr %7) #16
  call void @llvm.lifetime.start.p0(i64 1, ptr %8) #16
  call void @llvm.lifetime.start.p0(i64 1, ptr %9) #16
  call void @llvm.lifetime.start.p0(i64 2, ptr %10) #16
  %12 = load ptr, ptr %4, align 8
  %13 = load i32, ptr %5, align 4
  %14 = call i32 @tvb_reported_length_remaining(ptr noundef %12, i32 noundef %13)
  %15 = icmp slt i32 %14, 4
  br i1 %15, label %16, label %17

16:                                               ; preds = %2
  store i1 false, ptr %3, align 1
  store i32 1, ptr %11, align 4
  br label %58

17:                                               ; preds = %2
  %18 = load ptr, ptr %4, align 8
  %19 = load i32, ptr %5, align 4
  %20 = add i32 %19, 0
  %21 = call zeroext i8 @tvb_get_uint8(ptr noundef %18, i32 noundef %20)
  store i8 %21, ptr %8, align 1
  %22 = load i8, ptr %8, align 1
  %23 = zext i8 %22 to i32
  %24 = ashr i32 %23, 4
  %25 = trunc i32 %24 to i8
  store i8 %25, ptr %7, align 1
  %26 = load i8, ptr %8, align 1
  %27 = zext i8 %26 to i32
  %28 = and i32 %27, 15
  %29 = trunc i32 %28 to i8
  store i8 %29, ptr %6, align 1
  %30 = load i8, ptr %7, align 1
  %31 = zext i8 %30 to i32
  %32 = icmp ne i32 %31, 0
  br i1 %32, label %33, label %34

33:                                               ; preds = %17
  store i1 false, ptr %3, align 1
  store i32 1, ptr %11, align 4
  br label %58

34:                                               ; preds = %17
  %35 = load i8, ptr %6, align 1
  %36 = zext i8 %35 to i32
  switch i32 %36, label %38 [
    i32 0, label %37
    i32 2, label %37
    i32 1, label %37
    i32 8, label %37
    i32 10, label %37
  ]

37:                                               ; preds = %34, %34, %34, %34, %34
  br label %39

38:                                               ; preds = %34
  store i1 false, ptr %3, align 1
  store i32 1, ptr %11, align 4
  br label %58

39:                                               ; preds = %37
  %40 = load ptr, ptr %4, align 8
  %41 = load i32, ptr %5, align 4
  %42 = add i32 %41, 1
  %43 = call zeroext i8 @tvb_get_uint8(ptr noundef %40, i32 noundef %42)
  store i8 %43, ptr %9, align 1
  %44 = load i8, ptr %9, align 1
  %45 = zext i8 %44 to i32
  switch i32 %45, label %47 [
    i32 0, label %46
    i32 1, label %46
    i32 2, label %46
    i32 3, label %46
    i32 4, label %46
    i32 5, label %46
    i32 6, label %46
    i32 7, label %46
    i32 8, label %46
    i32 9, label %46
    i32 10, label %46
    i32 11, label %46
    i32 12, label %46
    i32 13, label %46
    i32 14, label %46
    i32 15, label %46
    i32 16, label %46
    i32 17, label %46
    i32 18, label %46
    i32 19, label %46
    i32 20, label %46
    i32 21, label %46
    i32 22, label %46
    i32 23, label %46
    i32 24, label %46
    i32 25, label %46
    i32 26, label %46
    i32 27, label %46
    i32 28, label %46
    i32 29, label %46
    i32 30, label %46
    i32 32, label %46
    i32 48, label %46
    i32 49, label %46
    i32 50, label %46
    i32 51, label %46
    i32 52, label %46
    i32 53, label %46
    i32 54, label %46
    i32 55, label %46
    i32 56, label %46
    i32 57, label %46
    i32 58, label %46
    i32 59, label %46
    i32 60, label %46
    i32 61, label %46
    i32 62, label %46
    i32 63, label %46
    i32 64, label %46
    i32 65, label %46
    i32 66, label %46
    i32 67, label %46
    i32 68, label %46
    i32 69, label %46
    i32 70, label %46
    i32 71, label %46
    i32 72, label %46
    i32 73, label %46
    i32 74, label %46
    i32 75, label %46
    i32 76, label %46
    i32 77, label %46
    i32 78, label %46
    i32 79, label %46
    i32 80, label %46
    i32 81, label %46
    i32 82, label %46
    i32 83, label %46
    i32 84, label %46
    i32 85, label %46
    i32 86, label %46
    i32 87, label %46
    i32 88, label %46
    i32 96, label %46
    i32 98, label %46
    i32 99, label %46
    i32 100, label %46
    i32 101, label %46
    i32 103, label %46
    i32 104, label %46
    i32 105, label %46
    i32 106, label %46
    i32 107, label %46
    i32 254, label %46
  ]

46:                                               ; preds = %39, %39, %39, %39, %39, %39, %39, %39, %39, %39, %39, %39, %39, %39, %39, %39, %39, %39, %39, %39, %39, %39, %39, %39, %39, %39, %39, %39, %39, %39, %39, %39, %39, %39, %39, %39, %39, %39, %39, %39, %39, %39, %39, %39, %39, %39, %39, %39, %39, %39, %39, %39, %39, %39, %39, %39, %39, %39, %39, %39, %39, %39, %39, %39, %39, %39, %39, %39, %39, %39, %39, %39, %39, %39, %39, %39, %39, %39, %39, %39, %39, %39, %39, %39
  br label %48

47:                                               ; preds = %39
  store i1 false, ptr %3, align 1
  store i32 1, ptr %11, align 4
  br label %58

48:                                               ; preds = %46
  %49 = load ptr, ptr %4, align 8
  %50 = load i32, ptr %5, align 4
  %51 = add i32 %50, 2
  %52 = call zeroext i16 @tvb_get_ntohs(ptr noundef %49, i32 noundef %51)
  store i16 %52, ptr %10, align 2
  %53 = load i16, ptr %10, align 2
  %54 = zext i16 %53 to i32
  %55 = icmp eq i32 %54, 0
  br i1 %55, label %56, label %57

56:                                               ; preds = %48
  store i1 false, ptr %3, align 1
  store i32 1, ptr %11, align 4
  br label %58

57:                                               ; preds = %48
  store i1 true, ptr %3, align 1
  store i32 1, ptr %11, align 4
  br label %58

58:                                               ; preds = %57, %56, %47, %38, %33, %16
  call void @llvm.lifetime.end.p0(i64 2, ptr %10) #16
  call void @llvm.lifetime.end.p0(i64 1, ptr %9) #16
  call void @llvm.lifetime.end.p0(i64 1, ptr %8) #16
  call void @llvm.lifetime.end.p0(i64 1, ptr %7) #16
  call void @llvm.lifetime.end.p0(i64 1, ptr %6) #16
  %59 = load i1, ptr %3, align 1
  ret i1 %59
}