; Function Attrs: null_pointer_is_valid sspstrong uwtable
define hidden zeroext i1 @lbmc_test_lbmc_header(ptr noundef %0, i32 noundef %1) local_unnamed_addr #0 {
  %3 = tail call i32 @tvb_reported_length_remaining(ptr noundef %0, i32 noundef %1)
  %4 = icmp slt i32 %3, 4
  br i1 %4, label %15, label %5

5:                                                ; preds = %2
  %6 = tail call zeroext i8 @tvb_get_uint8(ptr noundef %0, i32 noundef %1)
  %.not = icmp ult i8 %6, 16
  br i1 %.not, label %7, label %15

7:                                                ; preds = %5
  switch i8 %6, label %15 [
    i8 0, label %8
    i8 2, label %8
    i8 1, label %8
    i8 8, label %8
    i8 10, label %8
  ]

8:                                                ; preds = %7, %7, %7, %7, %7
  %9 = add i32 %1, 1
  %10 = tail call zeroext i8 @tvb_get_uint8(ptr noundef %0, i32 noundef %9)
  switch i8 %10, label %15 [
    i8 0, label %11
    i8 1, label %11
    i8 2, label %11
    i8 3, label %11
    i8 4, label %11
    i8 5, label %11
    i8 6, label %11
    i8 7, label %11
    i8 8, label %11
    i8 9, label %11
    i8 10, label %11
    i8 11, label %11
    i8 12, label %11
    i8 13, label %11
    i8 14, label %11
    i8 15, label %11
    i8 16, label %11
    i8 17, label %11
    i8 18, label %11
    i8 19, label %11
    i8 20, label %11
    i8 21, label %11
    i8 22, label %11
    i8 23, label %11
    i8 24, label %11
    i8 25, label %11
    i8 26, label %11
    i8 27, label %11
    i8 28, label %11
    i8 29, label %11
    i8 30, label %11
    i8 32, label %11
    i8 48, label %11
    i8 49, label %11
    i8 50, label %11
    i8 51, label %11
    i8 52, label %11
    i8 53, label %11
    i8 54, label %11
    i8 55, label %11
    i8 56, label %11
    i8 57, label %11
    i8 58, label %11
    i8 59, label %11
    i8 60, label %11
    i8 61, label %11
    i8 62, label %11
    i8 63, label %11
    i8 64, label %11
    i8 65, label %11
    i8 66, label %11
    i8 67, label %11
    i8 68, label %11
    i8 69, label %11
    i8 70, label %11
    i8 71, label %11
    i8 72, label %11
    i8 73, label %11
    i8 74, label %11
    i8 75, label %11
    i8 76, label %11
    i8 77, label %11
    i8 78, label %11
    i8 79, label %11
    i8 80, label %11
    i8 81, label %11
    i8 82, label %11
    i8 83, label %11
    i8 84, label %11
    i8 85, label %11
    i8 86, label %11
    i8 87, label %11
    i8 88, label %11
    i8 96, label %11
    i8 98, label %11
    i8 99, label %11
    i8 100, label %11
    i8 101, label %11
    i8 103, label %11
    i8 104, label %11
    i8 105, label %11
    i8 106, label %11
    i8 107, label %11
    i8 -2, label %11
  ]

11:                                               ; preds = %8, %8, %8, %8, %8, %8, %8, %8, %8, %8, %8, %8, %8, %8, %8, %8, %8, %8, %8, %8, %8, %8, %8, %8, %8, %8, %8, %8, %8, %8, %8, %8, %8, %8, %8, %8, %8, %8, %8, %8, %8, %8, %8, %8, %8, %8, %8, %8, %8, %8, %8, %8, %8, %8, %8, %8, %8, %8, %8, %8, %8, %8, %8, %8, %8, %8, %8, %8, %8, %8, %8, %8, %8, %8, %8, %8, %8, %8, %8, %8, %8, %8, %8, %8
  %12 = add i32 %1, 2
  %13 = tail call zeroext i16 @tvb_get_ntohs(ptr noundef %0, i32 noundef %12)
  %14 = icmp ne i16 %13, 0
  br label %15

15:                                               ; preds = %11, %8, %7, %5, %2
  %.0 = phi i1 [ false, %2 ], [ false, %5 ], [ false, %7 ], [ false, %8 ], [ %14, %11 ]
  ret i1 %.0
}